target datalayout = "e-m:e-p270:32:32-p271:32:32-p272:64:64-i64:64-i128:128-f80:128-n8:16:32:64-S128"
target triple = "x86_64-pc-linux-gnu"

%struct.AVRational = type { i32, i32 }
%struct.AVCodecParameters = type { i32, i32, i32, ptr, i32, ptr, i32, i32, i64, i32, i32, i32, i32, i32, i32, %struct.AVRational, %struct.AVRational, i32, i32, i32, i32, i32, i32, i32, %struct.AVChannelLayout, i32, i32, i32, i32, i32, i32 }
%struct.AVChannelLayout = type { i32, i32, %union.anon, ptr }
%union.anon = type { i64 }

; Function Attrs: nounwind uwtable
define internal void @codec_parameters_reset(ptr noundef %0) #0 {
  %2 = alloca ptr, align 8
  %3 = alloca %struct.AVRational, align 4
  %4 = alloca %struct.AVRational, align 4
  store ptr %0, ptr %2, align 8, !tbaa !4
  %5 = load ptr, ptr %2, align 8, !tbaa !4
  %6 = getelementptr inbounds nuw %struct.AVCodecParameters, ptr %5, i32 0, i32 3
  call void @av_freep(ptr noundef %6)
  %7 = load ptr, ptr %2, align 8, !tbaa !4
  %8 = getelementptr inbounds nuw %struct.AVCodecParameters, ptr %7, i32 0, i32 24
  call void @av_channel_layout_uninit(ptr noundef %8)
  %9 = load ptr, ptr %2, align 8, !tbaa !4
  %10 = getelementptr inbounds nuw %struct.AVCodecParameters, ptr %9, i32 0, i32 5
  %11 = load ptr, ptr %2, align 8, !tbaa !4
  %12 = getelementptr inbounds nuw %struct.AVCodecParameters, ptr %11, i32 0, i32 6
  call void @av_packet_side_data_free(ptr noundef %10, ptr noundef %12)
  %13 = load ptr, ptr %2, align 8, !tbaa !4
  call void @llvm.memset.p0.i64(ptr align 8 %13, i8 0, i64 176, i1 false)
  %14 = load ptr, ptr %2, align 8, !tbaa !4
  %15 = getelementptr inbounds nuw %struct.AVCodecParameters, ptr %14, i32 0, i32 0
  store i32 -1, ptr %15, align 8, !tbaa !9
  %16 = load ptr, ptr %2, align 8, !tbaa !4
  %17 = getelementptr inbounds nuw %struct.AVCodecParameters, ptr %16, i32 0, i32 1
  store i32 0, ptr %17, align 4, !tbaa !17
  %18 = load ptr, ptr %2, align 8, !tbaa !4
  %19 = getelementptr inbounds nuw %struct.AVCodecParameters, ptr %18, i32 0, i32 7
  store i32 -1, ptr %19, align 4, !tbaa !18
  %20 = load ptr, ptr %2, align 8, !tbaa !4
  %21 = getelementptr inbounds nuw %struct.AVCodecParameters, ptr %20, i32 0, i32 24
  %22 = getelementptr inbounds nuw %struct.AVChannelLayout, ptr %21, i32 0, i32 0
  store i32 0, ptr %22, align 8, !tbaa !19
  %23 = load ptr, ptr %2, align 8, !tbaa !4
  %24 = getelementptr inbounds nuw %struct.AVCodecParameters, ptr %23, i32 0, i32 17
  store i32 0, ptr %24, align 8, !tbaa !20
  %25 = load ptr, ptr %2, align 8, !tbaa !4
  %26 = getelementptr inbounds nuw %struct.AVCodecParameters, ptr %25, i32 0, i32 18
  store i32 0, ptr %26, align 4, !tbaa !21
  %27 = load ptr, ptr %2, align 8, !tbaa !4
  %28 = getelementptr inbounds nuw %struct.AVCodecParameters, ptr %27, i32 0, i32 19
  store i32 2, ptr %28, align 8, !tbaa !22
  %29 = load ptr, ptr %2, align 8, !tbaa !4
  %30 = getelementptr inbounds nuw %struct.AVCodecParameters, ptr %29, i32 0, i32 20
  store i32 2, ptr %30, align 4, !tbaa !23
  %31 = load ptr, ptr %2, align 8, !tbaa !4
  %32 = getelementptr inbounds nuw %struct.AVCodecParameters, ptr %31, i32 0, i32 21
  store i32 2, ptr %32, align 8, !tbaa !24
  %33 = load ptr, ptr %2, align 8, !tbaa !4
  %34 = getelementptr inbounds nuw %struct.AVCodecParameters, ptr %33, i32 0, i32 22
  store i32 0, ptr %34, align 4, !tbaa !25
  %35 = load ptr, ptr %2, align 8, !tbaa !4
  %36 = getelementptr inbounds nuw %struct.AVCodecParameters, ptr %35, i32 0, i32 15
  %37 = getelementptr inbounds nuw %struct.AVRational, ptr %3, i32 0, i32 0
  store i32 0, ptr %37, align 4, !tbaa !26
  %38 = getelementptr inbounds nuw %struct.AVRational, ptr %3, i32 0, i32 1
  store i32 1, ptr %38, align 4, !tbaa !27
  call void @llvm.memcpy.p0.p0.i64(ptr align 8 %36, ptr align 4 %3, i64 8, i1 false), !tbaa.struct !28
  %39 = load ptr, ptr %2, align 8, !tbaa !4
  %40 = getelementptr inbounds nuw %struct.AVCodecParameters, ptr %39, i32 0, i32 16
  %41 = getelementptr inbounds nuw %struct.AVRational, ptr %4, i32 0, i32 0
  store i32 0, ptr %41, align 4, !tbaa !26
  %42 = getelementptr inbounds nuw %struct.AVRational, ptr %4, i32 0, i32 1
  store i32 1, ptr %42, align 4, !tbaa !27
  call void @llvm.memcpy.p0.p0.i64(ptr align 8 %40, ptr align 4 %4, i64 8, i1 false), !tbaa.struct !28
  %43 = load ptr, ptr %2, align 8, !tbaa !4
  %44 = getelementptr inbounds nuw %struct.AVCodecParameters, ptr %43, i32 0, i32 11
  store i32 -99, ptr %44, align 8, !tbaa !30
  %45 = load ptr, ptr %2, align 8, !tbaa !4
  %46 = getelementptr inbounds nuw %struct.AVCodecParameters, ptr %45, i32 0, i32 12
  store i32 -99, ptr %46, align 4, !tbaa !31
  ret void
}

; Function Attrs: nounwind uwtable
define void @avcodec_parameters_free(ptr noundef %0) #0 {
  %2 = alloca ptr, align 8
  %3 = alloca ptr, align 8
  %4 = alloca i32, align 4
  store ptr %0, ptr %2, align 8, !tbaa !32
  call void @llvm.lifetime.start.p0(i64 8, ptr %3) #5
  %5 = load ptr, ptr %2, align 8, !tbaa !32
  %6 = load ptr, ptr %5, align 8, !tbaa !4
  store ptr %6, ptr %3, align 8, !tbaa !4
  %7 = load ptr, ptr %3, align 8, !tbaa !4
  %8 = icmp ne ptr %7, null
  br i1 %8, label %10, label %9

9:                                                ; preds = %1
  store i32 1, ptr %4, align 4
  br label %13

10:                                               ; preds = %1
  %11 = load ptr, ptr %3, align 8, !tbaa !4
  call void @codec_parameters_reset(ptr noundef %11)
  %12 = load ptr, ptr %2, align 8, !tbaa !32
  call void @av_freep(ptr noundef %12)
  store i32 0, ptr %4, align 4
  br label %13

13:                                               ; preds = %10, %9
  call void @llvm.lifetime.end.p0(i64 8, ptr %3) #5
  %14 = load i32, ptr %4, align 4
  switch i32 %14, label %16 [
    i32 0, label %15
    i32 1, label %15
  ]

15:                                               ; preds = %13, %13
  ret void

16:                                               ; preds = %13
  unreachable
}